target datalayout = "e-m:e-p270:32:32-p271:32:32-p272:64:64-i64:64-i128:128-f80:128-n8:16:32:64-S128"
target triple = "x86_64-pc-linux-gnu"

%struct.AVTXContext = type { i32, i32, ptr, ptr, ptr, ptr, [4 x ptr], i32, [4 x ptr], ptr, i32, i64, i32, float, double, ptr }

@.str.13 = private unnamed_addr constant [17 x i8] c"Transform tree:\0A\00", align 1

; Function Attrs: cold nounwind optsize uwtable
define i32 @av_tx_init(ptr noundef %0, ptr noundef %1, i32 noundef %2, i32 noundef %3, i32 noundef %4, ptr noundef %5, i64 noundef %6) #7 {
  %8 = alloca i32, align 4
  %9 = alloca ptr, align 8
  %10 = alloca ptr, align 8
  %11 = alloca i32, align 4
  %12 = alloca i32, align 4
  %13 = alloca i32, align 4
  %14 = alloca ptr, align 8
  %15 = alloca i64, align 8
  %16 = alloca i32, align 4
  %17 = alloca %struct.AVTXContext, align 8
  %18 = alloca double, align 8
  %19 = alloca float, align 4
  %20 = alloca i32, align 4
  store ptr %0, ptr %9, align 8, !tbaa !54
  store ptr %1, ptr %10, align 8, !tbaa !125
  store i32 %2, ptr %11, align 4, !tbaa !11
  store i32 %3, ptr %12, align 4, !tbaa !11
  store i32 %4, ptr %13, align 4, !tbaa !11
  store ptr %5, ptr %14, align 8, !tbaa !76
  store i64 %6, ptr %15, align 8, !tbaa !93
  call void @llvm.lifetime.start.p0(i64 4, ptr %16) #11
  call void @llvm.lifetime.start.p0(i64 160, ptr %17) #11
  call void @llvm.memset.p0.i64(ptr align 8 %17, i8 0, i64 160, i1 false)
  call void @llvm.lifetime.start.p0(i64 8, ptr %18) #11
  store double 1.000000e+00, ptr %18, align 8, !tbaa !126
  call void @llvm.lifetime.start.p0(i64 4, ptr %19) #11
  store float 1.000000e+00, ptr %19, align 4, !tbaa !127
  %21 = load i32, ptr %13, align 4, !tbaa !11
  %22 = icmp ne i32 %21, 0
  br i1 %22, label %23, label %32

23:                                               ; preds = %7
  %24 = load i32, ptr %11, align 4, !tbaa !11
  %25 = icmp uge i32 %24, 18
  br i1 %25, label %32, label %26

26:                                               ; preds = %23
  %27 = load ptr, ptr %9, align 8, !tbaa !54
  %28 = icmp ne ptr %27, null
  br i1 %28, label %29, label %32

29:                                               ; preds = %26
  %30 = load ptr, ptr %10, align 8, !tbaa !125
  %31 = icmp ne ptr %30, null
  br i1 %31, label %33, label %32

32:                                               ; preds = %29, %26, %23, %7
  store i32 -22, ptr %8, align 4
  store i32 1, ptr %20, align 4
  br label %103

33:                                               ; preds = %29
  %34 = load i64, ptr %15, align 8, !tbaa !93
  %35 = and i64 %34, 2
  %36 = icmp ne i64 %35, 0
  br i1 %36, label %40, label %37

37:                                               ; preds = %33
  %38 = load i64, ptr %15, align 8, !tbaa !93
  %39 = or i64 %38, 4611686018427387904
  store i64 %39, ptr %15, align 8, !tbaa !93
  br label %40

40:                                               ; preds = %37, %33
  %41 = load i64, ptr %15, align 8, !tbaa !93
  %42 = and i64 %41, 1
  %43 = icmp ne i64 %42, 0
  br i1 %43, label %47, label %44

44:                                               ; preds = %40
  %45 = load i64, ptr %15, align 8, !tbaa !93
  %46 = or i64 %45, -9223372036854775808
  store i64 %46, ptr %15, align 8, !tbaa !93
  br label %47

47:                                               ; preds = %44, %40
  %48 = load ptr, ptr %14, align 8, !tbaa !76
  %49 = icmp ne ptr %48, null
  br i1 %49, label %66, label %50

50:                                               ; preds = %47
  %51 = load i32, ptr %11, align 4, !tbaa !11
  %52 = icmp eq i32 %51, 3
  br i1 %52, label %65, label %53

53:                                               ; preds = %50
  %54 = load i32, ptr %11, align 4, !tbaa !11
  %55 = icmp eq i32 %54, 10
  br i1 %55, label %65, label %56

56:                                               ; preds = %53
  %57 = load i32, ptr %11, align 4, !tbaa !11
  %58 = icmp eq i32 %57, 13
  br i1 %58, label %65, label %59

59:                                               ; preds = %56
  %60 = load i32, ptr %11, align 4, !tbaa !11
  %61 = icmp eq i32 %60, 16
  br i1 %61, label %65, label %62

62:                                               ; preds = %59
  %63 = load i32, ptr %11, align 4, !tbaa !11
  %64 = icmp eq i32 %63, 7
  br i1 %64, label %65, label %66

65:                                               ; preds = %62, %59, %56, %53, %50
  store ptr %18, ptr %14, align 8, !tbaa !76
  br label %80

66:                                               ; preds = %62, %47
  %67 = load ptr, ptr %14, align 8, !tbaa !76
  %68 = icmp ne ptr %67, null
  br i1 %68, label %79, label %69

69:                                               ; preds = %66
  %70 = load i32, ptr %11, align 4, !tbaa !11
  %71 = icmp eq i32 %70, 0
  br i1 %71, label %79, label %72

72:                                               ; preds = %69
  %73 = load i32, ptr %11, align 4, !tbaa !11
  %74 = icmp eq i32 %73, 2
  br i1 %74, label %79, label %75

75:                                               ; preds = %72
  %76 = load i32, ptr %11, align 4, !tbaa !11
  %77 = icmp eq i32 %76, 4
  br i1 %77, label %79, label %78

78:                                               ; preds = %75
  store ptr %19, ptr %14, align 8, !tbaa !76
  br label %79

79:                                               ; preds = %78, %75, %72, %69, %66
  br label %80

80:                                               ; preds = %79, %65
  %81 = load i32, ptr %11, align 4, !tbaa !11
  %82 = load i64, ptr %15, align 8, !tbaa !93
  %83 = load i32, ptr %13, align 4, !tbaa !11
  %84 = load i32, ptr %12, align 4, !tbaa !11
  %85 = load ptr, ptr %14, align 8, !tbaa !76
  %86 = call i32 @ff_tx_init_subtx(ptr noundef %17, i32 noundef %81, i64 noundef %82, ptr noundef null, i32 noundef %83, i32 noundef %84, ptr noundef %85) #14
  store i32 %86, ptr %16, align 4, !tbaa !11
  %87 = load i32, ptr %16, align 4, !tbaa !11
  %88 = icmp slt i32 %87, 0
  br i1 %88, label %89, label %91

89:                                               ; preds = %80
  %90 = load i32, ptr %16, align 4, !tbaa !11
  store i32 %90, ptr %8, align 4
  store i32 1, ptr %20, align 4
  br label %103

91:                                               ; preds = %80
  %92 = getelementptr inbounds nuw %struct.AVTXContext, ptr %17, i32 0, i32 5
  %93 = load ptr, ptr %92, align 8, !tbaa !42
  %94 = getelementptr inbounds %struct.AVTXContext, ptr %93, i64 0
  %95 = load ptr, ptr %9, align 8, !tbaa !54
  store ptr %94, ptr %95, align 8, !tbaa !4
  %96 = getelementptr inbounds nuw %struct.AVTXContext, ptr %17, i32 0, i32 6
  %97 = getelementptr inbounds [4 x ptr], ptr %96, i64 0, i64 0
  %98 = load ptr, ptr %97, align 8, !tbaa !76
  %99 = load ptr, ptr %10, align 8, !tbaa !125
  store ptr %98, ptr %99, align 8, !tbaa !76
  call void (ptr, i32, ptr, ...) @av_log(ptr noundef null, i32 noundef 48, ptr noundef @.str.13)
  %100 = load ptr, ptr %9, align 8, !tbaa !54
  %101 = load ptr, ptr %100, align 8, !tbaa !4
  call void @print_tx_structure(ptr noundef %101, i32 noundef 0)
  %102 = load i32, ptr %16, align 4, !tbaa !11
  store i32 %102, ptr %8, align 4
  store i32 1, ptr %20, align 4
  br label %103

103:                                              ; preds = %91, %89, %32
  call void @llvm.lifetime.end.p0(i64 4, ptr %19) #11
  call void @llvm.lifetime.end.p0(i64 8, ptr %18) #11
  call void @llvm.lifetime.end.p0(i64 160, ptr %17) #11
  call void @llvm.lifetime.end.p0(i64 4, ptr %16) #11
  %104 = load i32, ptr %8, align 4
  ret i32 %104
}