; Function Attrs: cold nounwind optsize uwtable
define i32 @av_tx_init(ptr noundef captures(address_is_null) %0, ptr noundef writeonly captures(address_is_null) %1, i32 noundef %2, i32 noundef %3, i32 noundef %4, ptr noundef %5, i64 noundef %6) local_unnamed_addr #7 {
  %8 = alloca %struct.AVTXContext, align 8
  %9 = alloca double, align 8
  %10 = alloca float, align 4
  call void @llvm.lifetime.start.p0(i64 160, ptr nonnull %8) #13
  call void @llvm.memset.p0.i64(ptr noundef nonnull align 8 dereferenceable(160) %8, i8 0, i64 160, i1 false)
  call void @llvm.lifetime.start.p0(i64 8, ptr nonnull %9) #13
  store double 1.000000e+00, ptr %9, align 8, !tbaa !108
  call void @llvm.lifetime.start.p0(i64 4, ptr nonnull %10) #13
  store float 1.000000e+00, ptr %10, align 4, !tbaa !109
  %11 = icmp ne i32 %4, 0
  %12 = icmp ult i32 %2, 18
  %or.cond.not55 = and i1 %12, %11
  %13 = icmp ne ptr %0, null
  %or.cond3 = and i1 %13, %or.cond.not55
  %14 = icmp ne ptr %1, null
  %or.cond5 = and i1 %14, %or.cond3
  br i1 %or.cond5, label %15, label %38

15:                                               ; preds = %7
  %16 = shl i64 %6, 61
  %17 = and i64 %16, 4611686018427387904
  %18 = xor i64 %6, -1
  %19 = shl i64 %18, 63
  %20 = or disjoint i64 %17, %19
  %21 = xor i64 %20, 4611686018427387904
  %.1 = or i64 %21, %6
  %22 = icmp ne ptr %5, null
  br i1 %22, label %24, label %23

23:                                               ; preds = %15
  switch i32 %2, label %24 [
    i32 16, label %29
    i32 13, label %29
    i32 10, label %29
    i32 7, label %29
    i32 3, label %29
  ]

24:                                               ; preds = %23, %15
  %25 = and i32 %2, 29
  %26 = icmp eq i32 %25, 0
  %27 = icmp eq i32 %2, 4
  %28 = or i1 %27, %26
  %or.cond19 = or i1 %28, %22
  %spec.select57 = select i1 %or.cond19, ptr %5, ptr %10
  br label %29

29:                                               ; preds = %24, %23, %23, %23, %23, %23
  %.049 = phi ptr [ %9, %23 ], [ %9, %23 ], [ %9, %23 ], [ %9, %23 ], [ %9, %23 ], [ %spec.select57, %24 ]
  %30 = call i32 @ff_tx_init_subtx(ptr noundef nonnull %8, i32 noundef %2, i64 noundef %.1, ptr noundef null, i32 noundef %4, i32 noundef %3, ptr noundef %.049) #16
  %31 = icmp slt i32 %30, 0
  br i1 %31, label %38, label %32

32:                                               ; preds = %29
  %33 = getelementptr inbounds nuw i8, ptr %8, i64 32
  %34 = load ptr, ptr %33, align 8, !tbaa !38
  store ptr %34, ptr %0, align 8, !tbaa !50
  %35 = getelementptr inbounds nuw i8, ptr %8, i64 40
  %36 = load ptr, ptr %35, align 8, !tbaa !73
  store ptr %36, ptr %1, align 8, !tbaa !73
  call void (ptr, i32, ptr, ...) @av_log(ptr noundef null, i32 noundef 48, ptr noundef nonnull @.str.13) #13
  %37 = load ptr, ptr %0, align 8, !tbaa !50
  call fastcc void @print_tx_structure(ptr noundef %37, i32 noundef 0)
  br label %38

38:                                               ; preds = %29, %7, %32
  %.0 = phi i32 [ %30, %32 ], [ -22, %7 ], [ %30, %29 ]
  call void @llvm.lifetime.end.p0(i64 4, ptr nonnull %10) #13
  call void @llvm.lifetime.end.p0(i64 8, ptr nonnull %9) #13
  call void @llvm.lifetime.end.p0(i64 160, ptr nonnull %8) #13
  ret i32 %.0
}